(lp0
S'speak'
p1
aS'text'
p2
aS'on'
p3
aS'screen'
p4
aS''
p5
aS'twitter'
p6
aS'search'
p7
aS'speak'
p8
aS'text'
p9
aS'on'
p10
aS'screen'
p11
ag5
aS'twitter'
p12
aS'search'
p13
aS'speak'
p14
aS'text'
p15
aS'on'
p16
aS'screen'
p17
ag5
aS'twitter'
p18
aS'search'
p19
aS'speak'
p20
aS'text'
p21
aS'on'
p22
aS'screen'
p23
ag5
aS'twitter'
p24
aS'search'
p25
aS'speak'
p26
aS'text'
p27
aS'on'
p28
aS'screen'
p29
ag5
aS'twitter'
p30
aS'search'
p31
aS'speak'
p32
aS'text'
p33
aS'on'
p34
aS'screen'
p35
ag5
aS'twitter'
p36
aS'search'
p37
aS'speak'
p38
aS'text'
p39
aS'on'
p40
aS'screen'
p41
ag5
aS'twitter'
p42
aS'search'
p43
aS'speak'
p44
aS'text'
p45
aS'on'
p46
aS'screen'
p47
ag5
aS'twitter'
p48
aS'search'
p49
aS'speak'
p50
aS'text'
p51
aS'on'
p52
aS'screen'
p53
ag5
aS'twitter'
p54
aS'search'
p55
a.