(lp0
S'unfullscreen'
p1
aS'video'
p2
aS''
p3
aS'twitter'
p4
aS'search'
p5
aS'unfullscreen'
p6
aS'video'
p7
ag3
aS'twitter'
p8
aS'search'
p9
aS'unfullscreen'
p10
aS'video'
p11
ag3
aS'twitter'
p12
aS'search'
p13
aS'unfullscreen'
p14
aS'video'
p15
ag3
aS'twitter'
p16
aS'search'
p17
aS'unfullscreen'
p18
aS'video'
p19
ag3
aS'twitter'
p20
aS'search'
p21
aS'unfullscreen'
p22
aS'video'
p23
ag3
aS'twitter'
p24
aS'search'
p25
aS'unfullscreen'
p26
aS'video'
p27
ag3
aS'twitter'
p28
aS'search'
p29
aS'unfullscreen'
p30
aS'video'
p31
ag3
aS'twitter'
p32
aS'search'
p33
aS'unfullscreen'
p34
aS'video'
p35
ag3
aS'twitter'
p36
aS'search'
p37
a.