(dp0
S'lunch monday'
p1
(lp2
S'what is for lunch on monday'
p3
aS'what will i be eating for lunch on monday'
p4
aS'what food is for lunch on monday'
p5
ag3
aS"what is monday's lunch"
p6
asS'phone unfullscreen_video'
p7
(lp8
S'leave fullscreen'
p9
aS'get rid of fullscreen'
p10
aS'view smaller video'
p11
aS'smaller screen'
p12
aS'put in smaller screen'
p13
aS'no fullscreen'
p14
asS'voice_synthesizer audio_on'
p15
(lp16
S'audio on'
p17
aS'turn audio on'
p18
aS'turn the audio on'
p19
aS'turn on the audio'
p20
aS'turn on the voice synthesizer'
p21
aS'turn voice on'
p22
aS'turn the voice on'
p23
aS'turn on the voice'
p24
aS'enable audio'
p25
aS'enable voice'
p26
asS'activities today'
p27
(lp28
S'what am i doing today'
p29
aS'what is going on today'
p30
aS'what is happening today'
p31
aS"what are today's activities"
p32
aS'what activities are today'
p33
aS'what will i be doing today'
p34
aS'what are the activities for today'
p35
aS'what events are today'
p36
asS'phone show_contacts'
p37
(lp38
S'show contacts'
p39
aS'display contacts'
p40
aS'show me my contacts'
p41
aS'go to contacts'
p42
aS'view contacts'
p43
asS'lunch wednesday'
p44
(lp45
S'what is for lunch on wednesday'
p46
aS'what will i be eating for lunch on wednesday'
p47
aS'what food is for lunch on wednesday'
p48
ag46
aS"what is wednesday's lunch"
p49
asS'activities tuesday'
p50
(lp51
S'what am i doing on tuesday'
p52
aS'what is going on on tuesday'
p53
aS'what is happening on tuesday'
p54
aS"what are tuesday's activities"
p55
aS'what activities are on tuesday'
p56
aS'what will i be doing on tuesday'
p57
aS'what are the activities for tuesday'
p58
aS'what events are on tuesday'
p59
asS'activities wednesday'
p60
(lp61
S'what am i doing on wednesday'
p62
aS'what is going on on wednesday'
p63
aS'what is happening on wednesday'
p64
aS"what are wednesday's activities"
p65
aS'what activities are on wednesday'
p66
aS'what will i be doing on wednesday'
p67
aS'what are the activities for wednesday'
p68
aS'what events are on wednesday'
p69
asS'breakfast monday'
p70
(lp71
S'what is for breakfast on monday'
p72
aS'what will i be eating for breakfast on monday'
p73
aS'what food is for breakfast on monday'
p74
ag72
aS"what is monday's breakfast"
p75
asS'voice_synthesizer audio_off'
p76
(lp77
S'audio off'
p78
aS'turn off audio'
p79
aS'turn the audio off'
p80
aS'turn off the audio'
p81
aS'turn off the voice synthesizer'
p82
aS'turn voice off'
p83
aS'turn the voice off'
p84
aS'turn off the voice'
p85
aS'disable audio'
p86
aS'disable voice'
p87
asS'phone make_phone_call'
p88
(lp89
S'make phone call'
p90
aS'make a phone call'
p91
aS'start a phone call'
p92
aS'start a call'
p93
aS'call'
p94
aS'dial a number'
p95
aS'dial'
p96
asS'null yes_record'
p97
(lp98
S''
p99
asS'activities monday'
p100
(lp101
S'what am i doing on monday'
p102
aS'what is going on on monday'
p103
aS'what is happening on monday'
p104
aS"what are monday's activities"
p105
aS'what activities are on monday'
p106
aS'what will i be doing on monday'
p107
aS'what are the activities for monday'
p108
aS'what events are on monday'
p109
asS'lunch friday'
p110
(lp111
S'what is for lunch on friday'
p112
aS'what will i be eating for lunch on friday'
p113
aS'what food is for lunch on friday'
p114
ag112
aS"what is friday's lunch"
p115
asS'breakfast tomorrow'
p116
(lp117
S'what is for breakfast tomorrow'
p118
aS'what will i be eating for breakfast tomorrow'
p119
aS'what food is for breakfast tomorrow'
p120
ag118
aS"what is tomorrow's breakfast"
p121
asS'weather wednesday'
p122
(lp123
S'what is the weather on wednesday'
p124
aS"what is wednesday's weather"
p125
aS'what will wednesday be like'
p126
aS"what is wednesday's forecast"
p127
aS'what is the weather going to be like on wednesday'
p128
aS'what will the weather be on wednesday'
p129
aS'what is the forecast for wednesday'
p130
aS'what is it going to be like on wednesday'
p131
asS'weather saturday'
p132
(lp133
S'what is the weather on saturday'
p134
aS"what is saturday's weather"
p135
aS'what will saturday be like'
p136
aS"what is saturday's forecast"
p137
aS'what is the weather going to be like on saturday'
p138
aS'what will the weather be on saturday'
p139
aS'what is the forecast for saturday'
p140
aS'what is it going to be like on saturday'
p141
asS'time date'
p142
(lp143
S'what day is it'
p144
aS'what is the date'
p145
aS"what's the date"
p146
aS'tell me the date'
p147
aS"what is today's date"
p148
aS"tell me today's date"
p149
asS'dinner tomorrow'
p150
(lp151
S'what is for dinner tomorrow'
p152
aS'what will i be eating for dinner tomorrow'
p153
aS'what food is for dinner tomorrow'
p154
ag152
aS"what is tomorrow's dinner"
p155
asS'dinner tuesday'
p156
(lp157
S'what is for dinner on tuesday'
p158
aS'what will i be eating for dinner on tuesday'
p159
aS'what food is for dinner on tuesday'
p160
ag158
aS"what is tuesday's dinner"
p161
asS'weather tomorrow'
p162
(lp163
S'what is the weather tomorrow'
p164
aS"what is tomorrow's weather"
p165
aS'what will tomorrow be like'
p166
aS"what is tomorrow's forecast"
p167
aS'what is the weather going to be like tomorrow'
p168
aS'what will the weather be tomorrow'
p169
aS'what is the forecast for tomorrow'
p170
aS'what is it going to be like tomorrow'
p171
asS'dinner thursday'
p172
(lp173
S'what is for dinner on thursday'
p174
aS'what will i be eating for dinner on thursday'
p175
aS'what food is for dinner on thursday'
p176
ag174
aS"what is thursday's dinner"
p177
asS'lunch today'
p178
(lp179
S'what is for lunch today'
p180
aS'what will i be eating for lunch'
p181
aS'what food is for lunch today'
p182
aS'what is for lunch'
p183
aS'what is lunch today'
p184
aS"what is today's lunch"
p185
asS'weather thursday'
p186
(lp187
S'what is the weather on thursday'
p188
aS"what is thursday's weather"
p189
aS'what will thursday be like'
p190
aS"what is thursday's forecast"
p191
aS'what is the weather going to be like on thursday'
p192
aS'what will the weather be on thursday'
p193
aS'what is the forecast for thursday'
p194
aS'what is it going to be like on thursday'
p195
asS'breakfast thursday'
p196
(lp197
S'what is for breakfast on thursday'
p198
aS'what will i be eating for breakfast on thursday'
p199
aS'what food is for breakfast on thursday'
p200
ag198
aS"what is thursday's breakfast"
p201
asS'system wake_up'
p202
(lp203
S'turn on'
p204
aS'wake up'
p205
aS'power up'
p206
aS'start'
p207
asS'breakfast friday'
p208
(lp209
S'what is for breakfast on friday'
p210
aS'what will i be eating for breakfast on friday'
p211
aS'what food is for breakfast on friday'
p212
ag210
aS"what is friday's breakfast"
p213
asS'phone fullscreen_video'
p214
(lp215
S'put in fullscreen'
p216
aS'view in fullscreen'
p217
aS'make the video fullscreen'
p218
aS'enter fullscreen'
p219
aS'fullscreen video'
p220
aS'put video in fullscreen'
p221
aS'fullscreen'
p222
asS'breakfast wednesday'
p223
(lp224
S'what is for breakfast on wednesday'
p225
aS'what will i be eating for breakfast on wednesday'
p226
aS'what food is for breakfast on wednesday'
p227
ag225
aS"what is wednesday's breakfast"
p228
asS'weather sunday'
p229
(lp230
S'what is the weather on sunday'
p231
aS"what is sunday's weather"
p232
aS'what will sunday be like'
p233
aS"what is sunday's forecast"
p234
aS'what is the weather going to be like on sunday'
p235
aS'what will the weather be on sunday'
p236
aS'what is the forecast for sunday'
p237
aS'what is it going to be like on sunday'
p238
asS'dinner friday'
p239
(lp240
S'what is for dinner on friday'
p241
aS'what will i be eating for dinner on friday'
p242
aS'what food is for dinner on friday'
p243
ag241
aS"what is friday's dinner"
p244
asS'dinner wednesday'
p245
(lp246
S'what is for dinner on wednesday'
p247
aS'what will i be eating for dinner on wednesday'
p248
aS'what food is for dinner on wednesday'
p249
ag247
aS"what is wednesday's dinner"
p250
asS'lunch sunday'
p251
(lp252
S'what is for lunch on sunday'
p253
aS'what will i be eating for lunch on sunday'
p254
aS'what food is for lunch on sunday'
p255
ag253
aS"what is sunday's lunch"
p256
asS'dinner today'
p257
(lp258
S'what is for dinner today'
p259
aS'what will i be eating for dinner'
p260
aS'what food is for dinner today'
p261
aS'what is for dinner'
p262
aS'what is dinner today'
p263
aS"what is today's dinner"
p264
asS'confirmatory no'
p265
(lp266
S'no'
p267
aS'i disagree'
p268
aS'nope'
p269
aS'do not'
p270
aS"don't"
p271
aS'not okay'
p272
asS'weather tuesday'
p273
(lp274
S'what is the weather on tuesday'
p275
aS"what is tuesday's weather"
p276
aS'what will tuesday be like'
p277
aS"what is tuesday's forecast"
p278
aS'what is the weather going to be like on tuesday'
p279
aS'what will the weather be on tuesday'
p280
aS'what is the forecast for tuesday'
p281
aS'what is it going to be like on tuesday'
p282
asS'time time'
p283
(lp284
S'what is the time'
p285
aS'what time is it'
p286
aS'tell me the time'
p287
asS'weather monday'
p288
(lp289
S'what is the weather on monday'
p290
aS"what is monday's weather"
p291
aS'what will monday be like'
p292
aS"what is monday's forecast"
p293
aS'what is the weather going to be like on monday'
p294
aS'what will the weather be on monday'
p295
aS'what is the forecast for monday'
p296
aS'what is it going to be like on monday'
p297
asS'dinner sunday'
p298
(lp299
S'what is for dinner on sunday'
p300
aS'what will i be eating for dinner on sunday'
p301
aS'what food is for dinner on sunday'
p302
ag300
aS"what is sunday's dinner"
p303
asS'lunch saturday'
p304
(lp305
S'what is for lunch on saturday'
p306
aS'what will i be eating for lunch on saturday'
p307
aS'what food is for lunch on saturday'
p308
ag306
aS"what is saturday's lunch"
p309
asS'voice_synthesizer interrupt'
p310
(lp311
S'shhh'
p312
aS'quiet'
p313
aS'interrupt'
p314
aS'be quiet'
p315
aS'shut up'
p316
aS'shush'
p317
aS'stop talking'
p318
aS'stop audio'
p319
aS'interrupt audio'
p320
aS'pause'
p321
aS'pause talking'
p322
aS'interrupt talking'
p323
aS'pause audio'
p324
asS'breakfast sunday'
p325
(lp326
S'what is for breakfast on sunday'
p327
aS'what will i be eating for breakfast on sunday'
p328
aS'what food is for breakfast on sunday'
p329
ag327
aS"what is sunday's breakfast"
p330
asS'activities saturday'
p331
(lp332
S'what am i doing on saturday'
p333
aS'what is going on on saturday'
p334
aS'what is happening on saturday'
p335
aS"what are saturday's activities"
p336
aS'what activities are on saturday'
p337
aS'what will i be doing on saturday'
p338
aS'what are the activities for saturday'
p339
aS'what events are on saturday'
p340
asS'confirmatory yes'
p341
(lp342
S'yes'
p343
aS'i am sure'
p344
aS'i agree'
p345
aS'sure'
p346
aS'okay'
p347
aS'yup'
p348
aS'yeah'
p349
aS'fine'
p350
asS'activities thursday'
p351
(lp352
S'what am i doing on thursday'
p353
aS'what is going on on thursday'
p354
aS'what is happening on thursday'
p355
aS"what are thursday's activities"
p356
aS'what activities are on thursday'
p357
aS'what will i be doing on thursday'
p358
aS'what are the activities for thursday'
p359
aS'what events are on thursday'
p360
asS'dinner monday'
p361
(lp362
S'what is for dinner on monday'
p363
aS'what will i be eating for dinner on monday'
p364
aS'what food is for dinner on monday'
p365
ag363
aS"what is monday's dinner"
p366
asS'weather friday'
p367
(lp368
S'what is the weather on friday'
p369
aS"what is friday's weather"
p370
aS'what will friday be like'
p371
aS"what is friday's forecast"
p372
aS'what is the weather going to be like on friday'
p373
aS'what will the weather be on friday'
p374
aS'what is the forecast for friday'
p375
aS'what is it going to be like on friday'
p376
asS'activities friday'
p377
(lp378
S'what am i doing on friday'
p379
aS'what is going on on friday'
p380
aS'what is happening on friday'
p381
aS"what are friday's activities"
p382
aS'what activities are on friday'
p383
aS'what will i be doing on friday'
p384
aS'what are the activities for friday'
p385
aS'what events are on friday'
p386
asS'weather today'
p387
(lp388
S'what is the weather today'
p389
aS"what is today's weather"
p390
aS'what will today be like'
p391
aS"what is today's forecast"
p392
aS'what is the weather going to be like today'
p393
aS'what will the weather be today'
p394
aS'what is the forecast for today'
p395
aS'what is it going to be like today'
p396
asS'activities tomorrow'
p397
(lp398
S'what am i doing tomorrow'
p399
aS'what is going on tomorrow'
p400
aS'what is happening tomorrow'
p401
aS"what are tomorrow's activities"
p402
aS'what activities are tomorrow'
p403
aS'what will i be doing tomorrow'
p404
aS'what are the activities for tomorrow'
p405
aS'what events are tomorrow'
p406
asS'breakfast tuesday'
p407
(lp408
S'what is for breakfast on tuesday'
p409
aS'what will i be eating for breakfast on tuesday'
p410
aS'what food is for breakfast on tuesday'
p411
ag409
aS"what is tuesday's breakfast"
p412
asS'phone answer_phone'
p413
(lp414
S'answer the phone'
p415
aS'pick up the phone'
p416
aS'start the phone call'
p417
aS'answer the call'
p418
aS'answer phone'
p419
aS'answer call'
p420
aS'start the call'
p421
asS'dinner saturday'
p422
(lp423
S'what is for dinner on saturday'
p424
aS'what will i be eating for dinner on saturday'
p425
aS'what food is for dinner on saturday'
p426
ag424
aS"what is saturday's dinner"
p427
asS'phone resume_call'
p428
(lp429
S'continue call'
p430
aS'resume call'
p431
aS'continue the call'
p432
aS'resume the call'
p433
aS'start call again'
p434
aS'resume phone call'
p435
aS'continue phone call'
p436
aS'resume the phone call'
p437
aS'continue the phone call'
p438
asS'breakfast today'
p439
(lp440
S'what is for breakfast today'
p441
aS'what will i be eating for breakfast'
p442
aS'what food is for breakfast today'
p443
aS'what is for breakfast'
p444
aS'what is breakfast today'
p445
aS"what is today's breakfast"
p446
asS'lunch thursday'
p447
(lp448
S'what is for lunch on thursday'
p449
aS'what will i be eating for lunch on thursday'
p450
aS'what food is for lunch on thursday'
p451
ag449
aS"what is thursday's lunch"
p452
asS'phone hold_call'
p453
(lp454
S'hold call'
p455
aS'hold'
p456
aS'put on hold'
p457
aS'pause call'
p458
aS'hold the call'
p459
aS'pause the call'
p460
aS'pause the phone call'
p461
aS'hold the phone call'
p462
aS'pause phone call'
p463
aS'hold phone call'
p464
asS'breakfast saturday'
p465
(lp466
S'what is for breakfast on saturday'
p467
aS'what will i be eating for breakfast on saturday'
p468
aS'what food is for breakfast on saturday'
p469
ag467
aS"what is saturday's breakfast"
p470
asS'phone hang_up'
p471
(lp472
S'hang up'
p473
aS'stop call'
p474
aS'quit call'
p475
aS'end call'
p476
aS'stop the call'
p477
aS'quit the call'
p478
aS'end the call'
p479
aS'end phone call'
p480
asS'activities sunday'
p481
(lp482
S'what am i doing on sunday'
p483
aS'what is going on on sunday'
p484
aS'what is happening on sunday'
p485
aS"what are sunday's activities"
p486
aS'what activities are on sunday'
p487
aS'what will i be doing on sunday'
p488
aS'what are the activities for sunday'
p489
aS'what events are on sunday'
p490
asS'system go_to_sleep'
p491
(lp492
S'go to sleep'
p493
aS'power down'
p494
aS'power off'
p495
aS'turn off'
p496
aS'shut off'
p497
aS'shut down'
p498
asS'lunch tuesday'
p499
(lp500
S'what is for lunch on tuesday'
p501
aS'what will i be eating for lunch on tuesday'
p502
aS'what food is for lunch on tuesday'
p503
ag501
aS"what is tuesday's lunch"
p504
asS'voice_synthesizer speak_text_on_screen'
p505
(lp506
S'speak it'
p507
aS'speak that'
p508
aS'speak the text'
p509
aS'speak the text on the screen'
p510
aS'tell me that'
p511
aS'say it'
p512
aS'say that'
p513
asS'lunch tomorrow'
p514
(lp515
S'what is for lunch tomorrow'
p516
aS'what will i be eating for lunch tomorrow'
p517
aS'what food is for lunch tomorrow'
p518
ag516
aS"what is tomorrow's lunch"
p519
as.