(dp1
S'lunch monday'
p2
(lp3
S"what's being served on monday during the day"
p4
aS'can i have the monday afternoon menu'
p5
aS'what is being served after breakfast on monday'
p6
aS'what can i have for my meal at noon on monday'
p7
aS'what can we expect on the menu monday afternoon'
p8
aS"monday noon's menu, please"
p9
aS'what will we eat for the noon meal on monday'
p10
aS'what is the mid-day meal on monday'
p11
aS'what dishes are being served monday afternoon'
p12
aS'what is the menu for after breakfast on monday'
p13
aS'what will be on the monday afternoon menu'
p14
aS'what is the menu before dinner on monday'
p15
aS'can you give me the midday menu for monday'
p16
aS'what will be on the menu monday afternoon'
p17
aS'what do we eat on monday at noon'
p18
aS'will we have hamburgers on monday'
p19
aS'can i have the noon menu for monday'
p20
aS'what kind of food will be served monday afternoon'
p21
aS'what can i order to eat monday around noon'
p22
aS"what is monday's noon menu"
p23
aS'what is being served around noon on monday'
p24
aS"what's on monday's midday menu"
p25
aS'what will we be eating monday afternoon'
p26
aS'middle meal on monday , please'
p27
aS'what will the noon meal be monday'
p28
aS'what is being served monday at noon'
p29
aS'what food is being served monday at high noon'
p30
aS'what is on the menu for monday afternoon'
p31
aS'what is the menu for monday'
p32
aS'what are we eating monday before dinner'
p33
aS"is there anything good to eat on monday's noon menu"
p34
aS'what is the menu after breakfast on monday'
p35
aS"can you give me monday's midday menu"
p36
aS'what is available on the menu monday afternoon'
p37
aS"what's after  brunch on the menu on monday"
p38
aS'what do i get to eat on monday'
p39
aS"what's on the menu for noon on monday"
p40
aS'please show me the menu for monday afternoon'
p41
asS'phone unfullscreen_video'
p42
(lp43
sS'voice_synthesizer audio_on'
p44
(lp45
sS'activities today'
p46
(lp47
S'what is the agenda'
p48
aS'what do we have scheduled right now'
p49
aS'do i have any plans'
p50
aS"what's my schedule of events"
p51
aS'what will be on the schedule later'
p52
aS"what's the schedule for later"
p53
aS'will there be games later'
p54
aS'will this evening be busy'
p55
aS'what is my schedule like later'
p56
aS'what will i be doing later in the day'
p57
aS'what am i supposed to do next'
p58
aS'is there going to be any free time later on'
p59
aS'what does my calendar say'
p60
aS'do i have to be anywhere soon'
p61
aS'what can i expect to do later'
p62
aS"what's cooking later"
p63
aS"i don't know what to do"
p64
aS'what do i have to do later'
p65
aS'is there anything scheduled later'
p66
aS'show me what i have to do at the moment'
p67
aS'what is there to do'
p68
aS'give me the priorities for the work that needs to  be done now'
p69
aS'do i have anything scheduled for later'
p70
aS'do i have any plans for this evening'
p71
aS'is there anything planned later'
p72
aS"what's happening later"
p73
aS"i'm bored"
p74
aS'am i busy tonight'
p75
aS'do i have anything planned for later'
p76
aS'what does my to do list look like'
p77
aS'what are my plans'
p78
aS'what do we have scheduled for this evening'
p79
aS'do i have anything scheduled'
p80
aS'am i busy later'
p81
aS'what is planned later'
p82
aS"what's going on later"
p83
aS'will activities director be here later'
p84
aS"please tell me today's events"
p85
aS'what is my agenda like'
p86
aS'do i have time to work on my recreational hobbies'
p87
aS'what is happening next'
p88
aS'what is going on later'
p89
aS'what are my plans'
p90
aS"what's on my calendar"
p91
aS'are there anything stimulating planned'
p92
aS'what should i do later'
p93
aS'what will activities director have for us to do'
p94
aS'do i have any appointments'
p95
aS'what is planned later'
p96
aS'will i be doing anything later'
p97
aS'what is going on later'
p98
aS"what is on for this afternoon's schedule"
p99
aS'what do i have planned later'
p100
aS'what is my schedule like'
p101
aS'are there any fun things to do later'
p102
aS'what is there to do later'
p103
aS'will we be playing cards later'
p104
aS'what is on the schedule'
p105
aS'what do i have planned for the next few hours'
p106
aS'what is the agenda later'
p107
aS'how does my schedule look'
p108
aS'what do i have on'
p109
aS'what is the schedule later'
p110
asS'phone show_contacts'
p111
(lp112
sS'lunch wednesday'
p113
(lp114
S"what's being served on tuesday during the day"
p115
aS'can i have the tuesday afternoon menu'
p116
aS'what is being served after breakfast on tuesday'
p117
aS'what can i have for my meal at noon on tuesday'
p118
aS'what can we expect on the menu tuesday afternoon'
p119
aS"tuesday noon's menu, please"
p120
aS'what will we eat for the noon meal on tuesday'
p121
aS'what is the mid-day meal on tuesday'
p122
aS'what dishes are being served tuesday afternoon'
p123
aS'what is the menu for after breakfast on tuesday'
p124
aS'what will be on the tuesday afternoon menu'
p125
aS'what is the menu before dinner on tuesday'
p126
aS'can you give me the midday menu for tuesday'
p127
aS'what will be on the menu tuesday afternoon'
p128
aS'what do we eat on tuesday at noon'
p129
aS'will we have hamburgers on tuesday'
p130
aS'can i have the noon menu for tuesday'
p131
aS'what kind of food will be served tuesday afternoon'
p132
aS'what can i order to eat tuesday around noon'
p133
aS"what is tuesday's noon menu"
p134
aS'what is being served around noon on tuesday'
p135
aS"what's on tuesday's midday menu"
p136
aS'what will we be eating tuesday afternoon'
p137
aS'middle meal on tuesday , please'
p138
aS'what will the noon meal be tuesday'
p139
aS'what is being served tuesday at noon'
p140
aS'what food is being served tuesday at high noon'
p141
aS'what is on the menu for tuesday afternoon'
p142
aS'what is the menu for tuesday'
p143
aS'what are we eating tuesday before dinner'
p144
aS"is there anything good to eat on tuesday's noon menu"
p145
aS'what is the menu after breakfast on tuesday'
p146
aS"can you give me tuesday's midday menu"
p147
aS'what is available on the menu tuesday afternoon'
p148
aS"what's after  brunch on the menu on tuesday"
p149
aS'what do i get to eat on tuesday'
p150
aS"what's on the menu for noon on tuesday"
p151
aS'please show me the menu for tuesday afternoon'
p152
asS'activities tuesday'
p153
(lp154
S'what can i do on tuesday to get out of the house'
p155
aS"what's on for tuesday"
p156
aS'what are my plans for tuesday'
p157
aS'what events are planned for tuesday'
p158
aS'what can we expect on the schedule for tuesday'
p159
aS'what do we do tuesday'
p160
aS'can we play games tuesday'
p161
aS'what is scheduled for tuesday'
p162
aS'do i have free time on tuesday'
p163
aS'what time are events happening on tuesday'
p164
aS'what do we need to get done on tuesday'
p165
aS'what are my plans for tuesday'
p166
aS"what's on tuesday's schedule"
p167
aS'will there be anything on the schedule tuesday'
p168
aS"what's our job for  tuesday"
p169
aS'will we exercise tuesday'
p170
aS'what am i doing on tuesday'
p171
aS'what do i have scheduled for tuesday'
p172
aS'what is planned for tuesday'
p173
aS'what are we doing tuesday'
p174
aS'what do i have scheduled for tuesday'
p175
aS'what events are scheduled for tuesday'
p176
aS'what is on the schedule for tuesday'
p177
aS"what's the schedule for tuesday"
p178
aS'will the activities director be here tuesday'
p179
aS"what's on the agenda for tuesday"
p180
aS'what is the schedule of events for tuesday'
p181
aS'how does my schedule look tuesday'
p182
aS"what's planned on tuesday"
p183
aS'when is the schedule for events on tuesday'
p184
aS'what are the plans for tuesday'
p185
aS'what is my schedule tuesday'
p186
aS"what's on the events list for tuesday"
p187
aS'what will be be doing on tuesday'
p188
aS'what do we have to do tuesday'
p189
aS'what does activities director have planned for tuesday'
p190
aS'are there any events for tuesday'
p191
aS'what plans have i made for tuesday'
p192
asS'activities wednesday'
p193
(lp194
S'what can i do on wednesday to get out of the house'
p195
aS"what's on for wednesday"
p196
aS'what are my plans for wednesday'
p197
aS'what events are planned for wednesday'
p198
aS'what can we expect on the schedule for wednesday'
p199
aS'what do we do wednesday'
p200
aS'can we play games wednesday'
p201
aS'what is scheduled for wednesday'
p202
aS'do i have free time on wednesday'
p203
aS'what time are events happening on wednesday'
p204
aS'what do we need to get done on wednesday'
p205
aS'what are my plans for wednesday'
p206
aS"what's on wednesday's schedule"
p207
aS'will there be anything on the schedule wednesday'
p208
aS"what's our job for  wednesday"
p209
aS'will we exercise wednesday'
p210
aS'what am i doing on wednesday'
p211
aS'what do i have scheduled for wednesday'
p212
aS'what is planned for wednesday'
p213
aS'what are we doing wednesday'
p214
aS'what do i have scheduled for wednesday'
p215
aS'what events are scheduled for wednesday'
p216
aS'what is on the schedule for wednesday'
p217
aS"what's the schedule for wednesday"
p218
aS'will the activities director be here wednesday'
p219
aS"what's on the agenda for wednesday"
p220
aS'what is the schedule of events for wednesday'
p221
aS'how does my schedule look wednesday'
p222
aS"what's planned on wednesday"
p223
aS'when is the schedule for events on wednesday'
p224
aS'what are the plans for wednesday'
p225
aS'what is my schedule wednesday'
p226
aS"what's on the events list for wednesday"
p227
aS'what will be be doing on wednesday'
p228
aS'what do we have to do wednesday'
p229
aS'what does activities director have planned for wednesday'
p230
aS'are there any events for wednesday'
p231
aS'what plans have i made for wednesday'
p232
asS'lunch friday'
p233
(lp234
S"what's being served on friday during the day"
p235
aS'can i have the friday afternoon menu'
p236
aS'what is being served after breakfast on friday'
p237
aS'what can i have for my meal at noon on friday'
p238
aS'what can we expect on the menu friday afternoon'
p239
aS"friday noon's menu, please"
p240
aS'what will we eat for the noon meal on friday'
p241
aS'what is the mid-day meal on friday'
p242
aS'what dishes are being served friday afternoon'
p243
aS'what is the menu for after breakfast on friday'
p244
aS'what will be on the friday afternoon menu'
p245
aS'what is the menu before dinner on friday'
p246
aS'can you give me the midday menu for friday'
p247
aS'what will be on the menu friday afternoon'
p248
aS'what do we eat on friday at noon'
p249
aS'will we have hamburgers on friday'
p250
aS'can i have the noon menu for friday'
p251
aS'what kind of food will be served friday afternoon'
p252
aS'what can i order to eat friday around noon'
p253
aS"what is friday's noon menu"
p254
aS'what is being served around noon on friday'
p255
aS"what's on friday's midday menu"
p256
aS'what will we be eating friday afternoon'
p257
aS'middle meal on friday , please'
p258
aS'what will the noon meal be friday'
p259
aS'what is being served friday at noon'
p260
aS'what food is being served friday at high noon'
p261
aS'what is on the menu for friday afternoon'
p262
aS'what is the menu for friday'
p263
aS'what are we eating friday before dinner'
p264
aS"is there anything good to eat on friday's noon menu"
p265
aS'what is the menu after breakfast on friday'
p266
aS"can you give me friday's midday menu"
p267
aS'what is available on the menu friday afternoon'
p268
aS"what's after  brunch on the menu on friday"
p269
aS'what do i get to eat on friday'
p270
aS"what's on the menu for noon on friday"
p271
aS'please show me the menu for friday afternoon'
p272
asS'breakfast monday'
p273
(lp274
sS'voice_synthesizer audio_off'
p275
(lp276
sS'null yes_record'
p277
(lp278
sS'phone make_phone_call'
p279
(lp280
S'can you ring this person'
p281
aS'can i buzz someone real quick'
p282
aS'i need to phone someone'
p283
aS'help me make a call'
p284
aS'would i be able to make a call'
p285
aS"i'd like to talk to somebody"
p286
aS'i want to call fred'
p287
aS'i need to call on someone'
p288
aS'i need assistance with dialing a number'
p289
aS'i need to call someone'
p290
aS'can i use your cell for a second'
p291
aS"i'd like to make a call"
p292
aS"i'd like to make a call"
p293
aS'can i make a call'
p294
aS"i'd like to give somebody a ring"
p295
aS'i want to dial my daughter'
p296
aS'could i please make a call'
p297
aS'can you dial steven'
p298
aS'i need to call someone'
p299
aS'i want to dial a number'
p300
aS'i need to make a call to someone'
p301
aS'can you dial this number'
p302
aS'can i ring someone up for a second'
p303
aS"i'd like to dial"
p304
aS"i'd like to ring my sister"
p305
aS'may i make a call'
p306
aS"i'd like to call somebody"
p307
aS'i want to give my daughter a ring'
p308
aS'i need to call someone'
p309
aS'i need to make a call'
p310
aS'i want to call a contact'
p311
aS'can you call someone'
p312
aS'can i speed dial suzy'
p313
aS'can i make a call'
p314
aS'can i make a call'
p315
aS'can i call someone'
p316
aS"i'd like to give somebody a buzz"
p317
aS'i want to ring my daughter'
p318
aS'call fred'
p319
aS'can i make a call'
p320
aS'i want to make a call'
p321
asS'activities monday'
p322
(lp323
S'what can i do on monday to get out of the house'
p324
aS"what's on for monday"
p325
aS'what are my plans for monday'
p326
aS'what events are planned for monday'
p327
aS'what can we expect on the schedule for monday'
p328
aS'what do we do monday'
p329
aS'can we play games monday'
p330
aS'what is scheduled for monday'
p331
aS'do i have free time on monday'
p332
aS'what time are events happening on monday'
p333
aS'what do we need to get done on monday'
p334
aS'what are my plans for monday'
p335
aS"what's on monday's schedule"
p336
aS'will there be anything on the schedule monday'
p337
aS"what's our job for  monday"
p338
aS'will we exercise monday'
p339
aS'what am i doing on monday'
p340
aS'what do i have scheduled for monday'
p341
aS'what is planned for monday'
p342
aS'what are we doing monday'
p343
aS'what do i have scheduled for monday'
p344
aS'what events are scheduled for monday'
p345
aS'what is on the schedule for monday'
p346
aS"what's the schedule for monday"
p347
aS'will the activities director be here monday'
p348
aS"what's on the agenda for monday"
p349
aS'what is the schedule of events for monday'
p350
aS'how does my schedule look monday'
p351
aS"what's planned on monday"
p352
aS'when is the schedule for events on monday'
p353
aS'what are the plans for monday'
p354
aS'what is my schedule monday'
p355
aS"what's on the events list for monday"
p356
aS'what will be be doing on monday'
p357
aS'what do we have to do monday'
p358
aS'what does activities director have planned for monday'
p359
aS'are there any events for monday'
p360
aS'what plans have i made for monday'
p361
asS'dinner thursday'
p362
(lp363
S'what is being cooked on thursday night'
p364
aS'what is the supper menu on thursday'
p365
aS'what is the menu for after lunch on thursday'
p366
aS'what can i have for my evening meal on thursday'
p367
aS'what food are we enjoying thursday evening'
p368
aS'last meal on thursday , please'
p369
aS'what is for supper on thursday'
p370
aS'what is being served thursday evening'
p371
aS'what are the food options for thursday evening'
p372
aS'what is on the menu for thursday night'
p373
aS'what is the menu for supper on thursday'
p374
aS"show me thursday night's menu"
p375
aS'what is the menu on thursday night'
p376
aS'what is being served thursday evening'
p377
aS"what on thursday's evening menu"
p378
aS'what is the menu thursday evening'
p379
aS'what do we eat on thursday evening'
p380
aS'what is the last meal on thursday'
p381
aS'can i have the evening menu for thursday'
p382
aS'please show me the menu for thursday night'
p383
aS"what's there to eat thursday after lunch"
p384
aS'did you see the supper menu for thursday'
p385
aS'what is being served after lunch on thursday'
p386
aS"can you give me thursday's evening menu"
p387
aS'what will be on the menu thursday evening'
p388
aS"thursday evening's menu, please"
p389
aS'what is the main meal on thursday'
p390
aS'what is the evening meal on thursday'
p391
aS'what kind of food will be served thursday night'
p392
aS'tell me what the last meal on thursday consists of'
p393
aS'when we go out to eat thursday night, what will be on the menu'
p394
aS'what is the menu on thursday evening'
p395
aS'what can i have for the last meal on thursday'
p396
aS'what will be available on the menu thursday evening'
p397
aS"what's after lunch on the menu on thursday"
p398
aS'will we have soup on thursday'
p399
aS"what's on the menu for thursday evening"
p400
aS'what dishes are being served thursday night'
p401
asS'breakfast tomorrow'
p402
(lp403
sS'weather wednesday'
p404
(lp405
sS'weather saturday'
p406
(lp407
sS'lunch today'
p408
(lp409
S'what can i eat after breakfast'
p410
aS"what is on today's noon menu"
p411
aS'what is being served around noon'
p412
aS"what's on the menu for my midday meal"
p413
aS'what is on the menu this afternoon'
p414
aS"what's the second meal today"
p415
aS'i want a sandwich'
p416
aS'what is the mid-day meal'
p417
aS"what are today's midday meal choices"
p418
aS'what is on the menu this afternoon'
p419
aS'what should i eat this afternoon'
p420
aS'what are they serving at the midday meal'
p421
aS'good afternoon, what is there to eat'
p422
aS'what can we get to eat at the daily buffet'
p423
aS'what is the menu before dinner'
p424
aS'what can i have for my second meal'
p425
aS'what are we eating this afternoon'
p426
aS'what the mid-day menu today'
p427
aS'will there be soup today'
p428
aS'what is on the mid-day menu'
p429
aS'what is on the menu after breakfast'
p430
aS'where should i eat this afternoon'
p431
aS'what is there to eat before dinner'
p432
aS'which entrees are available at noon time'
p433
aS'what is being served after breakfast'
p434
aS'can you give me the midday menu'
p435
aS'what food is available this afternoon'
p436
aS"what's the noon menu today"
p437
aS'will there be sandwiches today'
p438
aS'what is being served at noon'
p439
aS'what will i eat this afternoon'
p440
aS'what is on the menu for this afternoon'
p441
asS'dinner tomorrow'
p442
(lp443
S'how will i eat tomorrow evening'
p444
aS'when we go out to eat tomorrow night, what will be on the menu'
p445
aS'what is the menu tomorrow night'
p446
aS"can you give me tomorrow's evening menus"
p447
aS'what will be on the menu tomorrow evening'
p448
aS"what is tomorrow's last meal"
p449
aS"what is tomorrow's last meal"
p450
aS"what's on the menu for tomorrow evening"
p451
aS'how does the menu look for tomorrow night'
p452
aS'what are we having tomorrow night'
p453
aS'what is the supper menu tomorrow'
p454
aS'what is the menu for after lunch tomorrow'
p455
aS'what can i have for my last meal tomorrow'
p456
aS'what will be available to eat tomorrow evening'
p457
aS'what does the last meal of tomorrow consist of'
p458
aS'what is for supper tomorrow'
p459
aS'what is being served tomorrow evening'
p460
aS"what are my choices for this evening's meal"
p461
aS'what is on the menu for tomorrow night'
p462
aS'what is the menu for supper tomorrow'
p463
aS'what are we being served tomorrow night'
p464
aS'what is the menu tomorrow night'
p465
aS'what is being served tomorrow evening'
p466
aS"what's on tomorrow's evening menu"
p467
aS'what is the menu tomorrow evening'
p468
aS'the last meal of the day tomorrow, please'
p469
aS'will we have soup tomorrow'
p470
aS'can i have the evening menu for tomorrow'
p471
aS'please show me a menu for tomorrow evening'
p472
aS"what does tomorrow evening's menu consist of"
p473
aS'what is the evening menu tomorrow'
p474
aS'what is being served after lunch tomorrow'
p475
aS"what can i have for tomorrow's evening meal"
p476
aS'what food are we enjoying tomorrow evening'
p477
aS'what do we eat after lunch tomorrow'
p478
aS"what is tomorrow's supper"
p479
aS'what is the evening meal for tomorrow'
p480
aS'what dishes are being served tomorrow night'
p481
asS'dinner tuesday'
p482
(lp483
S'what is being cooked on tuesday night'
p484
aS'what is the supper menu on tuesday'
p485
aS'what is the menu for after lunch on tuesday'
p486
aS'what can i have for my evening meal on tuesday'
p487
aS'what food are we enjoying tuesday evening'
p488
aS'last meal on tuesday , please'
p489
aS'what is for supper on tuesday'
p490
aS'what is being served tuesday evening'
p491
aS'what are the food options for tuesday evening'
p492
aS'what is on the menu for tuesday night'
p493
aS'what is the menu for supper on tuesday'
p494
aS"show me tuesday night's menu"
p495
aS'what is the menu on tuesday night'
p496
aS'what is being served tuesday evening'
p497
aS"what on tuesday's evening menu"
p498
aS'what is the menu tuesday evening'
p499
aS'what do we eat on tuesday evening'
p500
aS'what is the last meal on tuesday'
p501
aS'can i have the evening menu for tuesday'
p502
aS'please show me the menu for tuesday night'
p503
aS"what's there to eat tuesday after lunch"
p504
aS'did you see the supper menu for tuesday'
p505
aS'what is being served after lunch on tuesday'
p506
aS"can you give me tuesday's evening menu"
p507
aS'what will be on the menu tuesday evening'
p508
aS"tuesday evening's menu, please"
p509
aS'what is the main meal on tuesday'
p510
aS'what is the evening meal on tuesday'
p511
aS'what kind of food will be served tuesday night'
p512
aS'tell me what the last meal on tuesday consists of'
p513
aS'when we go out to eat tuesday night, what will be on the menu'
p514
aS'what is the menu on tuesday evening'
p515
aS'what can i have for the last meal on tuesday'
p516
aS'what will be available on the menu tuesday evening'
p517
aS"what's after lunch on the menu on tuesday"
p518
aS'will we have soup on tuesday'
p519
aS"what's on the menu for tuesday evening"
p520
aS'what dishes are being served tuesday night'
p521
asS'weather tomorrow'
p522
(lp523
S"what's it looking like outside tomorrow"
p524
aS'is rain predicted tommorow'
p525
aS'what is the forecast for tomorrow'
p526
aS'what does the forecast call for'
p527
aS'is tomorrow going to be nice'
p528
aS'is it going to rain tomorrow'
p529
aS'what will it be like tomorrow'
p530
aS'will it be sunny tomorrow'
p531
aS'what will it be like outside tomorrow'
p532
aS'will it be nice outside tomorrow'
p533
aS'what should i wear outside tomorrow'
p534
aS"can you google what it's going to be like tomorrow"
p535
aS'what is the temperature tomorrow'
p536
aS"what's it like outside tomorrow"
p537
aS'is tomorrow going to be pleasant'
p538
aS'is it going to be sunny tomorrow'
p539
aS'will it rain tomorrow'
p540
aS'will it be nice outside tomorrow'
p541
aS'is it going to be nice out tomorrow'
p542
aS'will it be raining tomorrow'
p543
aS'how is it outside tomorrow'
p544
aS'will t be cold tomorrow'
p545
aS'how will tomorrow feel'
p546
aS"what's it like out tomorrow"
p547
aS'will it be nice outside tomorrow'
p548
aS'is it going to snow tomorrow'
p549
aS'will it be sunny tomorrow'
p550
aS'will it be cold tomorrow'
p551
aS'what is it going to be like outside tomorrow'
p552
aS'will it be windy tomorrow'
p553
aS'do i need a rain jacket tomorrow'
p554
aS'will it snow tomorrow'
p555
aS'will tomorrow be nice outside'
p556
aS'will it be sunny tomorrow'
p557
aS'are we expecting it to be nice outside tomorrow'
p558
aS'is it going to be snowing tomorrow'
p559
aS'how cold will it be tomorrow'
p560
aS"what's the temperature for tomorrow"
p561
asS'time date'
p562
(lp563
S'what is today'
p564
aS"is my doctor's appointment on monday"
p565
aS'what day is it'
p566
aS'where are we in life'
p567
aS'what is the current day, month, and year'
p568
aS'what day of the month is it today, and what month is it'
p569
aS'what day is it'
p570
aS'what day of the month is it'
p571
aS"what does today's calendar say"
p572
aS'what month is it'
p573
aS'what day is it today'
p574
aS'what day is it'
p575
aS'what day of the month is it'
p576
aS'what day is today'
p577
aS'what does the calendar say for today'
p578
aS'what day is next friday'
p579
aS'what day is it today'
p580
aS'what day is it'
p581
aS'what day of the month and what year is it'
p582
aS'ehat month and day is it today'
p583
aS'what does the calendar say'
p584
aS'what is today'
p585
aS'what day of the month is it'
p586
aS'is it the middle of the month'
p587
aS'can you confirm this day in time for me, please'
p588
aS'bring up my calendar'
p589
asS'weather thursday'
p590
(lp591
sS'system wake_up'
p592
(lp593
sS'breakfast friday'
p594
(lp595
sS'phone fullscreen_video'
p596
(lp597
sS'breakfast wednesday'
p598
(lp599
sS'weather sunday'
p600
(lp601
sS'dinner wednesday'
p602
(lp603
S'what is being cooked on wednesday night'
p604
aS'what is the supper menu on wednesday'
p605
aS'what is the menu for after lunch on wednesday'
p606
aS'what can i have for my evening meal on wednesday'
p607
aS'what food are we enjoying wednesday evening'
p608
aS'last meal on wednesday , please'
p609
aS'what is for supper on wednesday'
p610
aS'what is being served wednesday evening'
p611
aS'what are the food options for wednesday evening'
p612
aS'what is on the menu for wednesday night'
p613
aS'what is the menu for supper on wednesday'
p614
aS"show me wednesday night's menu"
p615
aS'what is the menu on wednesday night'
p616
aS'what is being served wednesday evening'
p617
aS"what on wednesday's evening menu"
p618
aS'what is the menu wednesday evening'
p619
aS'what do we eat on wednesday evening'
p620
aS'what is the last meal on wednesday'
p621
aS'can i have the evening menu for wednesday'
p622
aS'please show me the menu for wednesday night'
p623
aS"what's there to eat wednesday after lunch"
p624
aS'did you see the supper menu for wednesday'
p625
aS'what is being served after lunch on wednesday'
p626
aS"can you give me wednesday's evening menu"
p627
aS'what will be on the menu wednesday evening'
p628
aS"wednesday evening's menu, please"
p629
aS'what is the main meal on wednesday'
p630
aS'what is the evening meal on wednesday'
p631
aS'what kind of food will be served wednesday night'
p632
aS'tell me what the last meal on wednesday consists of'
p633
aS'when we go out to eat wednesday night, what will be on the menu'
p634
aS'what is the menu on wednesday evening'
p635
aS'what can i have for the last meal on wednesday'
p636
aS'what will be available on the menu wednesday evening'
p637
aS"what's after lunch on the menu on wednesday"
p638
aS'will we have soup on wednesday'
p639
aS"what's on the menu for wednesday evening"
p640
aS'what dishes are being served wednesday night'
p641
asS'dinner friday'
p642
(lp643
S'what is being cooked on friday night'
p644
aS'what is the supper menu on friday'
p645
aS'what is the menu for after lunch on friday'
p646
aS'what can i have for my evening meal on friday'
p647
aS'what food are we enjoying friday evening'
p648
aS'last meal on friday , please'
p649
aS'what is for supper on friday'
p650
aS'what is being served friday evening'
p651
aS'what are the food options for friday evening'
p652
aS'what is on the menu for friday night'
p653
aS'what is the menu for supper on friday'
p654
aS"show me friday night's menu"
p655
aS'what is the menu on friday night'
p656
aS'what is being served friday evening'
p657
aS"what on friday's evening menu"
p658
aS'what is the menu friday evening'
p659
aS'what do we eat on friday evening'
p660
aS'what is the last meal on friday'
p661
aS'can i have the evening menu for friday'
p662
aS'please show me the menu for friday night'
p663
aS"what's there to eat friday after lunch"
p664
aS'did you see the supper menu for friday'
p665
aS'what is being served after lunch on friday'
p666
aS"can you give me friday's evening menu"
p667
aS'what will be on the menu friday evening'
p668
aS"friday evening's menu, please"
p669
aS'what is the main meal on friday'
p670
aS'what is the evening meal on friday'
p671
aS'what kind of food will be served friday night'
p672
aS'tell me what the last meal on friday consists of'
p673
aS'when we go out to eat friday night, what will be on the menu'
p674
aS'what is the menu on friday evening'
p675
aS'what can i have for the last meal on friday'
p676
aS'what will be available on the menu friday evening'
p677
aS"what's after lunch on the menu on friday"
p678
aS'will we have soup on friday'
p679
aS"what's on the menu for friday evening"
p680
aS'what dishes are being served friday night'
p681
asS'dinner today'
p682
(lp683
S'what am i having before bed'
p684
aS'are we going to eat out when we get off of work'
p685
aS'what is being served this evening'
p686
aS'what can i have for my third meal'
p687
aS'what is on the menu this evening'
p688
aS'what food do we have on the menu tonight'
p689
aS'what are my food choices'
p690
aS'what is to eat this evening'
p691
aS'what will i have for a last meal tonight'
p692
aS'where should i eat for tonight'
p693
aS'what is on the menu after lunch'
p694
aS'what can we eat tonight'
p695
aS'what is the menu for after lunch'
p696
aS"what's on the menu for the last meal of the day"
p697
aS'what is on the menu this evening'
p698
aS"what's the last meal's menu today"
p699
aS'what are we having to eat'
p700
aS'what is on the evening menu'
p701
aS"what are this evening's meal options"
p702
aS'what will be the last meal today'
p703
aS'what shall i prepare for tonight'
p704
aS'what is available for the last meal of the day'
p705
aS"what's are we eating tonight"
p706
aS'what should we eat when we get home from work'
p707
aS'what is being served after lunch'
p708
aS'can you give me the evening menu'
p709
aS'what food are we enjoying this evening'
p710
aS'what do we eat tonight'
p711
aS'will here be soup today'
p712
aS'what is being served this evening'
p713
aS'what is on the menu tonight'
p714
aS'what should i eat for tonight'
p715
asS'confirmatory no'
p716
(lp717
sS'weather tuesday'
p718
(lp719
sS'time time'
p720
(lp721
S'what does the clock say'
p722
aS'how late is it'
p723
aS"what's the hour"
p724
aS'is it quarter til'
p725
aS'what is the current hour and minutes'
p726
aS'what hour of the day is it '
p727
aS'is it afternoon yet'
p728
aS'what hour is it'
p729
aS'what hour of the day is it'
p730
aS'how many hours are left in the day'
p731
aS'what are the hours of your shift'
p732
aS"what's the clock say"
p733
aS'where is the sun'
p734
aS'when is lunch'
p735
aS'what does the clock say'
p736
aS'how late has it gotten'
p737
aS'how many minutes are left to what hour'
p738
aS'how late in the day exactly is it'
p739
aS'how long until dinner'
p740
aS'can you check the clock'
p741
aS'what is the forecast for this afternoon'
p742
aS'what is it like outside'
p743
aS'is it stormy out'
p744
aS'is it raining'
p745
aS"how's it looking out there"
p746
aS'what is it like outside'
p747
aS'what does your watch say'
p748
aS'is it after 1'
p749
aS'what hour is it'
p750
aS'how early is it'
p751
aS'how many minutes past what hour is it'
p752
aS'give me the exact hour and minutes'
p753
aS'what does the clock say'
p754
aS'is it close to noon yet'
p755
aS'what hour'
p756
aS'i would like to set my clock'
p757
aS'could you look at the clock for me, please'
p758
aS'show me my clock'
p759
asS'lunch sunday'
p760
(lp761
S"what's being served on sunday during the day"
p762
aS'can i have the sunday afternoon menu'
p763
aS'what is being served after breakfast on sunday'
p764
aS'what can i have for my meal at noon on sunday'
p765
aS'what can we expect on the menu sunday afternoon'
p766
aS"sunday noon's menu, please"
p767
aS'what will we eat for the noon meal on sunday'
p768
aS'what is the mid-day meal on sunday'
p769
aS'what dishes are being served sunday afternoon'
p770
aS'what is the menu for after breakfast on sunday'
p771
aS'what will be on the sunday afternoon menu'
p772
aS'what is the menu before dinner on sunday'
p773
aS'can you give me the midday menu for sunday'
p774
aS'what will be on the menu sunday afternoon'
p775
aS'what do we eat on sunday at noon'
p776
aS'will we have hamburgers on sunday'
p777
aS'can i have the noon menu for sunday'
p778
aS'what kind of food will be served sunday afternoon'
p779
aS'what can i order to eat sunday around noon'
p780
aS"what is sunday's noon menu"
p781
aS'what is being served around noon on sunday'
p782
aS"what's on sunday's midday menu"
p783
aS'what will we be eating sunday afternoon'
p784
aS'middle meal on sunday , please'
p785
aS'what will the noon meal be sunday'
p786
aS'what is being served sunday at noon'
p787
aS'what food is being served sunday at high noon'
p788
aS'what is on the menu for sunday afternoon'
p789
aS'what is the menu for sunday'
p790
aS'what are we eating sunday before dinner'
p791
aS"is there anything good to eat on sunday's noon menu"
p792
aS'what is the menu after breakfast on sunday'
p793
aS"can you give me sunday's midday menu"
p794
aS'what is available on the menu sunday afternoon'
p795
aS"what's after  brunch on the menu on sunday"
p796
aS'what do i get to eat on sunday'
p797
aS"what's on the menu for noon on sunday"
p798
aS'please show me the menu for sunday afternoon'
p799
asS'weather monday'
p800
(lp801
sS'dinner sunday'
p802
(lp803
S'what is being cooked on sunday night'
p804
aS'what is the supper menu on sunday'
p805
aS'what is the menu for after lunch on sunday'
p806
aS'what can i have for my evening meal on sunday'
p807
aS'what food are we enjoying sunday evening'
p808
aS'last meal on sunday , please'
p809
aS'what is for supper on sunday'
p810
aS'what is being served sunday evening'
p811
aS'what are the food options for sunday evening'
p812
aS'what is on the menu for sunday night'
p813
aS'what is the menu for supper on sunday'
p814
aS"show me sunday night's menu"
p815
aS'what is the menu on sunday night'
p816
aS'what is being served sunday evening'
p817
aS"what on sunday's evening menu"
p818
aS'what is the menu sunday evening'
p819
aS'what do we eat on sunday evening'
p820
aS'what is the last meal on sunday'
p821
aS'can i have the evening menu for sunday'
p822
aS'please show me the menu for sunday night'
p823
aS"what's there to eat sunday after lunch"
p824
aS'did you see the supper menu for sunday'
p825
aS'what is being served after lunch on sunday'
p826
aS"can you give me sunday's evening menu"
p827
aS'what will be on the menu sunday evening'
p828
aS"sunday evening's menu, please"
p829
aS'what is the main meal on sunday'
p830
aS'what is the evening meal on sunday'
p831
aS'what kind of food will be served sunday night'
p832
aS'tell me what the last meal on sunday consists of'
p833
aS'when we go out to eat sunday night, what will be on the menu'
p834
aS'what is the menu on sunday evening'
p835
aS'what can i have for the last meal on sunday'
p836
aS'what will be available on the menu sunday evening'
p837
aS"what's after lunch on the menu on sunday"
p838
aS'will we have soup on sunday'
p839
aS"what's on the menu for sunday evening"
p840
aS'what dishes are being served sunday night'
p841
asS'lunch saturday'
p842
(lp843
S"what's being served on saturday during the day"
p844
aS'can i have the saturday afternoon menu'
p845
aS'what is being served after breakfast on saturday'
p846
aS'what can i have for my meal at noon on saturday'
p847
aS'what can we expect on the menu saturday afternoon'
p848
aS"saturday noon's menu, please"
p849
aS'what will we eat for the noon meal on saturday'
p850
aS'what is the mid-day meal on saturday'
p851
aS'what dishes are being served saturday afternoon'
p852
aS'what is the menu for after breakfast on saturday'
p853
aS'what will be on the saturday afternoon menu'
p854
aS'what is the menu before dinner on saturday'
p855
aS'can you give me the midday menu for saturday'
p856
aS'what will be on the menu saturday afternoon'
p857
aS'what do we eat on saturday at noon'
p858
aS'will we have hamburgers on saturday'
p859
aS'can i have the noon menu for saturday'
p860
aS'what kind of food will be served saturday afternoon'
p861
aS'what can i order to eat saturday around noon'
p862
aS"what is saturday's noon menu"
p863
aS'what is being served around noon on saturday'
p864
aS"what's on saturday's midday menu"
p865
aS'what will we be eating saturday afternoon'
p866
aS'middle meal on saturday , please'
p867
aS'what will the noon meal be saturday'
p868
aS'what is being served saturday at noon'
p869
aS'what food is being served saturday at high noon'
p870
aS'what is on the menu for saturday afternoon'
p871
aS'what is the menu for saturday'
p872
aS'what are we eating saturday before dinner'
p873
aS"is there anything good to eat on saturday's noon menu"
p874
aS'what is the menu after breakfast on saturday'
p875
aS"can you give me saturday's midday menu"
p876
aS'what is available on the menu saturday afternoon'
p877
aS"what's after  brunch on the menu on saturday"
p878
aS'what do i get to eat on saturday'
p879
aS"what's on the menu for noon on saturday"
p880
aS'please show me the menu for saturday afternoon'
p881
asS'voice_synthesizer interrupt'
p882
(lp883
sS'breakfast sunday'
p884
(lp885
sS'breakfast thursday'
p886
(lp887
sS'confirmatory yes'
p888
(lp889
sS'activities thursday'
p890
(lp891
S'what can i do on thursday to get out of the house'
p892
aS"what's on for thursday"
p893
aS'what are my plans for thursday'
p894
aS'what events are planned for thursday'
p895
aS'what can we expect on the schedule for thursday'
p896
aS'what do we do thursday'
p897
aS'can we play games thursday'
p898
aS'what is scheduled for thursday'
p899
aS'do i have free time on thursday'
p900
aS'what time are events happening on thursday'
p901
aS'what do we need to get done on thursday'
p902
aS'what are my plans for thursday'
p903
aS"what's on thursday's schedule"
p904
aS'will there be anything on the schedule thursday'
p905
aS"what's our job for  thursday"
p906
aS'will we exercise thursday'
p907
aS'what am i doing on thursday'
p908
aS'what do i have scheduled for thursday'
p909
aS'what is planned for thursday'
p910
aS'what are we doing thursday'
p911
aS'what do i have scheduled for thursday'
p912
aS'what events are scheduled for thursday'
p913
aS'what is on the schedule for thursday'
p914
aS"what's the schedule for thursday"
p915
aS'will the activities director be here thursday'
p916
aS"what's on the agenda for thursday"
p917
aS'what is the schedule of events for thursday'
p918
aS'how does my schedule look thursday'
p919
aS"what's planned on thursday"
p920
aS'when is the schedule for events on thursday'
p921
aS'what are the plans for thursday'
p922
aS'what is my schedule thursday'
p923
aS"what's on the events list for thursday"
p924
aS'what will be be doing on thursday'
p925
aS'what do we have to do thursday'
p926
aS'what does activities director have planned for thursday'
p927
aS'are there any events for thursday'
p928
aS'what plans have i made for thursday'
p929
asS'dinner monday'
p930
(lp931
S'what is being cooked on monday night'
p932
aS'what is the supper menu on monday'
p933
aS'what is the menu for after lunch on monday'
p934
aS'what can i have for my evening meal on monday'
p935
aS'what food are we enjoying monday evening'
p936
aS'last meal on monday , please'
p937
aS'what is for supper on monday'
p938
aS'what is being served monday evening'
p939
aS'what are the food options for monday evening'
p940
aS'what is on the menu for monday night'
p941
aS'what is the menu for supper on monday'
p942
aS"show me monday night's menu"
p943
aS'what is the menu on monday night'
p944
aS'what is being served monday evening'
p945
aS"what on monday's evening menu"
p946
aS'what is the menu monday evening'
p947
aS'what do we eat on monday evening'
p948
aS'what is the last meal on monday'
p949
aS'can i have the evening menu for monday'
p950
aS'please show me the menu for monday night'
p951
aS"what's there to eat monday after lunch"
p952
aS'did you see the supper menu for monday'
p953
aS'what is being served after lunch on monday'
p954
aS"can you give me monday's evening menu"
p955
aS'what will be on the menu monday evening'
p956
aS"monday evening's menu, please"
p957
aS'what is the main meal on monday'
p958
aS'what is the evening meal on monday'
p959
aS'what kind of food will be served monday night'
p960
aS'tell me what the last meal on monday consists of'
p961
aS'when we go out to eat monday night, what will be on the menu'
p962
aS'what is the menu on monday evening'
p963
aS'what can i have for the last meal on monday'
p964
aS'what will be available on the menu monday evening'
p965
aS"what's after lunch on the menu on monday"
p966
aS'will we have soup on monday'
p967
aS"what's on the menu for monday evening"
p968
aS'what dishes are being served monday night'
p969
asS'weather friday'
p970
(lp971
sS'activities friday'
p972
(lp973
S'what can i do on friday to get out of the house'
p974
aS"what's on for friday"
p975
aS'what are my plans for friday'
p976
aS'what events are planned for friday'
p977
aS'what can we expect on the schedule for friday'
p978
aS'what do we do friday'
p979
aS'can we play games friday'
p980
aS'what is scheduled for friday'
p981
aS'do i have free time on friday'
p982
aS'what time are events happening on friday'
p983
aS'what do we need to get done on friday'
p984
aS'what are my plans for friday'
p985
aS"what's on friday's schedule"
p986
aS'will there be anything on the schedule friday'
p987
aS"what's our job for  friday"
p988
aS'will we exercise friday'
p989
aS'what am i doing on friday'
p990
aS'what do i have scheduled for friday'
p991
aS'what is planned for friday'
p992
aS'what are we doing friday'
p993
aS'what do i have scheduled for friday'
p994
aS'what events are scheduled for friday'
p995
aS'what is on the schedule for friday'
p996
aS"what's the schedule for friday"
p997
aS'will the activities director be here friday'
p998
aS"what's on the agenda for friday"
p999
aS'what is the schedule of events for friday'
p1000
aS'how does my schedule look friday'
p1001
aS"what's planned on friday"
p1002
aS'when is the schedule for events on friday'
p1003
aS'what are the plans for friday'
p1004
aS'what is my schedule friday'
p1005
aS"what's on the events list for friday"
p1006
aS'what will be be doing on friday'
p1007
aS'what do we have to do friday'
p1008
aS'what does activities director have planned for friday'
p1009
aS'are there any events for friday'
p1010
aS'what plans have i made for friday'
p1011
asS'weather today'
p1012
(lp1013
S'is it cold here'
p1014
aS'what is the current thermometer reading'
p1015
aS'what is the temperature like'
p1016
aS'it is nice out right now'
p1017
aS'will i enjoy being outside'
p1018
aS'can i walk in a t-shirt outside right now'
p1019
aS'how warm will it be outside'
p1020
aS'is it going to rain'
p1021
aS'is thursday going to be sunny and warm'
p1022
aS'how does the forecast look on thursday'
p1023
aS'what is it supposed to be like on thursday'
p1024
aS"what's it looking like outside"
p1025
aS'is it beastly out now'
p1026
aS'what is the temperature'
p1027
aS'it is nice outside now'
p1028
aS'is it nice enough to go outside'
p1029
aS"what's the humidity outside/"
p1030
aS'what is the temperature outside'
p1031
aS"what's the temperature"
p1032
aS'what does it feel like outside'
p1033
aS'how is the humidity now'
p1034
aS"i hope it's gotten warmer"
p1035
aS'should i wear a jacket'
p1036
aS"what should i wear when i go out so that i won't be too cold"
p1037
aS'how does it feel outside'
p1038
aS'is it nice out'
p1039
aS'is it enjoyable to be outside'
p1040
aS'how cold is it outside'
p1041
aS'will the picnic be canceled'
p1042
aS'should i wear a jacket'
p1043
aS'what are the conditions like outside'
p1044
aS'what is the temperature at the moment'
p1045
aS'any sunshine'
p1046
aS'is it hot out'
p1047
aS"i'm leaving in a few minutes so do you think i need an umbrella"
p1048
aS'what is the forecast'
p1049
aS'is it raining'
p1050
aS'is pleasant outside'
p1051
aS'is it windy outside now'
p1052
aS'will we get rain'
p1053
aS'is it warm outside'
p1054
aS'what is the temperature like'
p1055
aS'how does it look outside'
p1056
aS'should i bring an umbrella'
p1057
aS'is it sunny'
p1058
aS'do i need to wear a coat when i go out'
p1059
aS"what's the temperature like"
p1060
aS'is it nice out there'
p1061
aS'it it going to be windy outside'
p1062
aS'is it raining outside'
p1063
aS'is it cloudy'
p1064
aS'is it cold outside'
p1065
aS'is bad outside'
p1066
aS'will it be sunny all day'
p1067
aS'do i need my jacket'
p1068
aS'how is it outside'
p1069
aS'is it raining now'
p1070
aS"what's the temperature"
p1071
aS"what's it like outside"
p1072
aS'is it currently enjoyable outside'
p1073
aS'is the sun shining outside'
p1074
aS'is it sunny'
p1075
aS'is it snowing outside'
p1076
aS'what is the temperature'
p1077
aS'will there be a chance of rain'
p1078
aS'do i need a sweater or a jacket'
p1079
aS'any chance of rain'
p1080
asS'activities saturday'
p1081
(lp1082
S'what can i do on saturday to get out of the house'
p1083
aS"what's on for saturday"
p1084
aS'what are my plans for saturday'
p1085
aS'what events are planned for saturday'
p1086
aS'what can we expect on the schedule for saturday'
p1087
aS'what do we do saturday'
p1088
aS'can we play games saturday'
p1089
aS'what is scheduled for saturday'
p1090
aS'do i have free time on saturday'
p1091
aS'what time are events happening on saturday'
p1092
aS'what do we need to get done on saturday'
p1093
aS'what are my plans for saturday'
p1094
aS"what's on saturday's schedule"
p1095
aS'will there be anything on the schedule saturday'
p1096
aS"what's our job for  saturday"
p1097
aS'will we exercise saturday'
p1098
aS'what am i doing on saturday'
p1099
aS'what do i have scheduled for saturday'
p1100
aS'what is planned for saturday'
p1101
aS'what are we doing saturday'
p1102
aS'what do i have scheduled for saturday'
p1103
aS'what events are scheduled for saturday'
p1104
aS'what is on the schedule for saturday'
p1105
aS"what's the schedule for saturday"
p1106
aS'will the activities director be here saturday'
p1107
aS"what's on the agenda for saturday"
p1108
aS'what is the schedule of events for saturday'
p1109
aS'how does my schedule look saturday'
p1110
aS"what's planned on saturday"
p1111
aS'when is the schedule for events on saturday'
p1112
aS'what are the plans for saturday'
p1113
aS'what is my schedule saturday'
p1114
aS"what's on the events list for saturday"
p1115
aS'what will be be doing on saturday'
p1116
aS'what do we have to do saturday'
p1117
aS'what does activities director have planned for saturday'
p1118
aS'are there any events for saturday'
p1119
aS'what plans have i made for saturday'
p1120
asS'activities tomorrow'
p1121
(lp1122
S"what are tomorrow's exercises"
p1123
aS"what is on tomorrow's schedule"
p1124
aS'what is my schedule tomorrow'
p1125
aS"what's on the events schedule for tomorrow"
p1126
aS'what will we be doing tomorrow'
p1127
aS'what do we have to do tomorrow'
p1128
aS'will we exercise tomorrow'
p1129
aS'are there any events for tomorrow'
p1130
aS'do i have any free time tomorrow'
p1131
aS'what is there to do for fun tomorrow'
p1132
aS'what bills need to be paid tomorrow'
p1133
aS'what are my plans for tomorrow'
p1134
aS"what's on the schedule for tomorrow"
p1135
aS'will there be anything fun on the schedule tomorrow'
p1136
aS'what do we do tomorrow'
p1137
aS'can we play games tomorrow'
p1138
aS'what is scheduled for tomorrow'
p1139
aS'what are my plans for tomorrow'
p1140
aS'what events are scheduled for tomorrow'
p1141
aS'what class preparations need to be made tomorrow'
p1142
aS'what are my plans for tomorrow'
p1143
aS"what's on tomorrow's calendar"
p1144
aS'what can we expect on the schedule tomorrow'
p1145
aS"what's our job for tomorrow"
p1146
aS'can we play cards tomorrow'
p1147
aS'what am i doing tomorrow'
p1148
aS'what do i have scheduled for tomorrow'
p1149
aS'what am i doing tomorrow'
p1150
aS'what are we doing tomorrow'
p1151
aS'what do i have scheduled for tomorrow'
p1152
aS'what events are tomorrow'
p1153
aS'what is on the schedule tomorrow'
p1154
aS"what's the schedule for tomorrow"
p1155
aS'will activities director be here tomorrow'
p1156
aS"what's on the agenda for tomorrow"
p1157
aS'what are the plans for tomorrow'
p1158
aS'show me my to do list for tomorrow'
p1159
aS"what's planned for tomorrow"
p1160
asS'breakfast tuesday'
p1161
(lp1162
sS'phone answer_phone'
p1163
(lp1164
sS'dinner saturday'
p1165
(lp1166
S'what is being cooked on saturday night'
p1167
aS'what is the supper menu on saturday'
p1168
aS'what is the menu for after lunch on saturday'
p1169
aS'what can i have for my evening meal on saturday'
p1170
aS'what food are we enjoying saturday evening'
p1171
aS'last meal on saturday , please'
p1172
aS'what is for supper on saturday'
p1173
aS'what is being served saturday evening'
p1174
aS'what are the food options for saturday evening'
p1175
aS'what is on the menu for saturday night'
p1176
aS'what is the menu for supper on saturday'
p1177
aS"show me saturday night's menu"
p1178
aS'what is the menu on saturday night'
p1179
aS'what is being served saturday evening'
p1180
aS"what on saturday's evening menu"
p1181
aS'what is the menu saturday evening'
p1182
aS'what do we eat on saturday evening'
p1183
aS'what is the last meal on saturday'
p1184
aS'can i have the evening menu for saturday'
p1185
aS'please show me the menu for saturday night'
p1186
aS"what's there to eat saturday after lunch"
p1187
aS'did you see the supper menu for saturday'
p1188
aS'what is being served after lunch on saturday'
p1189
aS"can you give me saturday's evening menu"
p1190
aS'what will be on the menu saturday evening'
p1191
aS"saturday evening's menu, please"
p1192
aS'what is the main meal on saturday'
p1193
aS'what is the evening meal on saturday'
p1194
aS'what kind of food will be served saturday night'
p1195
aS'tell me what the last meal on saturday consists of'
p1196
aS'when we go out to eat saturday night, what will be on the menu'
p1197
aS'what is the menu on saturday evening'
p1198
aS'what can i have for the last meal on saturday'
p1199
aS'what will be available on the menu saturday evening'
p1200
aS"what's after lunch on the menu on saturday"
p1201
aS'will we have soup on saturday'
p1202
aS"what's on the menu for saturday evening"
p1203
aS'what dishes are being served saturday night'
p1204
asS'phone resume_call'
p1205
(lp1206
sS'breakfast today'
p1207
(lp1208
S"what's there to eat this morning"
p1209
aS"what is this morning's menu"
p1210
aS'what is being served before lunch'
p1211
aS"what's on the menu for the morning meal"
p1212
aS'what is on the menu this morning'
p1213
aS'what do we eat this morning'
p1214
aS'what will i get to eat'
p1215
aS"what's to eat this morning"
p1216
aS"what is on the menu for today's first meal"
p1217
aS'what is the on the menu'
p1218
aS'what is there to eat this morning'
p1219
aS'what are they serving this morning'
p1220
aS"what's being served this morning"
p1221
aS'what can we eat this morning'
p1222
aS'what is being served early today'
p1223
aS'can you give me the brunch menu'
p1224
aS'what are we eating this morning'
p1225
aS'what do i eat when i wake up'
p1226
aS'can i have donuts'
p1227
aS"what's on the menu this morning"
p1228
aS'what will i eat first today'
p1229
aS'where should i eat this morning'
p1230
aS'good morning, what is there to eat'
p1231
aS'what can we eat before going to wiork'
p1232
aS'what is the brunch menu'
p1233
aS'what can i have for the first meal of the day'
p1234
aS'what food is available this morning'
p1235
aS'is there any food this morning'
p1236
aS'can i have bacon'
p1237
aS'what is being served this morning'
p1238
aS'what is on the menu this morning'
p1239
aS'is there anything healthy to eat in the morning'
p1240
asS'lunch thursday'
p1241
(lp1242
S"what's being served on thursday during the day"
p1243
aS'can i have the thursday afternoon menu'
p1244
aS'what is being served after breakfast on thursday'
p1245
aS'what can i have for my meal at noon on thursday'
p1246
aS'what can we expect on the menu thursday afternoon'
p1247
aS"thursday noon's menu, please"
p1248
aS'what will we eat for the noon meal on thursday'
p1249
aS'what is the mid-day meal on thursday'
p1250
aS'what dishes are being served thursday afternoon'
p1251
aS'what is the menu for after breakfast on thursday'
p1252
aS'what will be on the thursday afternoon menu'
p1253
aS'what is the menu before dinner on thursday'
p1254
aS'can you give me the midday menu for thursday'
p1255
aS'what will be on the menu thursday afternoon'
p1256
aS'what do we eat on thursday at noon'
p1257
aS'will we have hamburgers on thursday'
p1258
aS'can i have the noon menu for thursday'
p1259
aS'what kind of food will be served thursday afternoon'
p1260
aS'what can i order to eat thursday around noon'
p1261
aS"what is thursday's noon menu"
p1262
aS'what is being served around noon on thursday'
p1263
aS"what's on thursday's midday menu"
p1264
aS'what will we be eating thursday afternoon'
p1265
aS'middle meal on thursday , please'
p1266
aS'what will the noon meal be thursday'
p1267
aS'what is being served thursday at noon'
p1268
aS'what food is being served thursday at high noon'
p1269
aS'what is on the menu for thursday afternoon'
p1270
aS'what is the menu for thursday'
p1271
aS'what are we eating thursday before dinner'
p1272
aS"is there anything good to eat on thursday's noon menu"
p1273
aS'what is the menu after breakfast on thursday'
p1274
aS"can you give me thursday's midday menu"
p1275
aS'what is available on the menu thursday afternoon'
p1276
aS"what's after  brunch on the menu on thursday"
p1277
aS'what do i get to eat on thursday'
p1278
aS"what's on the menu for noon on thursday"
p1279
aS'please show me the menu for thursday afternoon'
p1280
asS'phone hold_call'
p1281
(lp1282
sS'breakfast saturday'
p1283
(lp1284
sS'phone hang_up'
p1285
(lp1286
S"thank you, i'm finished"
p1287
aS'see you later'
p1288
aS'the phone call is over'
p1289
aS'disconnect me'
p1290
aS'will you terminate this call please'
p1291
aS"ok that's enough buh-bye"
p1292
aS'disconnect'
p1293
aS'could i please disconnect'
p1294
aS"i'm ending the call now"
p1295
aS'disconnect the call'
p1296
aS'end the call'
p1297
aS'well, i need to get back to work'
p1298
aS'end the phone call'
p1299
aS'cut the line'
p1300
aS'i am finished can you end the call please'
p1301
aS'i have to go byyye'
p1302
aS'the end'
p1303
aS'i want to disconnect the phone'
p1304
aS"i'm disconnecting now"
p1305
aS'end the call'
p1306
aS'goodbye'
p1307
aS'is it allright if i go'
p1308
aS'i am done talking on the phone'
p1309
aS'disconnect'
p1310
aS'can you please end this call'
p1311
aS"i'd like to go now thanks"
p1312
aS'goodbye'
p1313
aS'i need to end the call'
p1314
aS'i am getting off the phone now'
p1315
aS'i would like to end the call'
p1316
aS"i'm done"
p1317
aS'can i sign off now'
p1318
aS'conversation over'
p1319
aS"i'm done"
p1320
aS'will you end this call for me'
p1321
aS"i'd like to end it right now"
p1322
aS'end call'
p1323
aS'end the call'
p1324
aS'can you end call please'
p1325
aS'i need to disconnect now'
p1326
aS'please disconnect the call'
p1327
aS'may i close the phone'
p1328
asS'activities sunday'
p1329
(lp1330
S'what can i do on sunday to get out of the house'
p1331
aS"what's on for sunday"
p1332
aS'what are my plans for sunday'
p1333
aS'what events are planned for sunday'
p1334
aS'what can we expect on the schedule for sunday'
p1335
aS'what do we do sunday'
p1336
aS'can we play games sunday'
p1337
aS'what is scheduled for sunday'
p1338
aS'do i have free time on sunday'
p1339
aS'what time are events happening on sunday'
p1340
aS'what do we need to get done on sunday'
p1341
aS'what are my plans for sunday'
p1342
aS"what's on sunday's schedule"
p1343
aS'will there be anything on the schedule sunday'
p1344
aS"what's our job for  sunday"
p1345
aS'will we exercise sunday'
p1346
aS'what am i doing on sunday'
p1347
aS'what do i have scheduled for sunday'
p1348
aS'what is planned for sunday'
p1349
aS'what are we doing sunday'
p1350
aS'what do i have scheduled for sunday'
p1351
aS'what events are scheduled for sunday'
p1352
aS'what is on the schedule for sunday'
p1353
aS"what's the schedule for sunday"
p1354
aS'will the activities director be here sunday'
p1355
aS"what's on the agenda for sunday"
p1356
aS'what is the schedule of events for sunday'
p1357
aS'how does my schedule look sunday'
p1358
aS"what's planned on sunday"
p1359
aS'when is the schedule for events on sunday'
p1360
aS'what are the plans for sunday'
p1361
aS'what is my schedule sunday'
p1362
aS"what's on the events list for sunday"
p1363
aS'what will be be doing on sunday'
p1364
aS'what do we have to do sunday'
p1365
aS'what does activities director have planned for sunday'
p1366
aS'are there any events for sunday'
p1367
aS'what plans have i made for sunday'
p1368
asS'system go_to_sleep'
p1369
(lp1370
sS'lunch tuesday'
p1371
(lp1372
S"what's being served on tuesday during the day"
p1373
aS'can i have the tuesday afternoon menu'
p1374
aS'what is being served after breakfast on tuesday'
p1375
aS'what can i have for my meal at noon on tuesday'
p1376
aS'what can we expect on the menu tuesday afternoon'
p1377
aS"tuesday noon's menu, please"
p1378
aS'what will we eat for the noon meal on tuesday'
p1379
aS'what is the mid-day meal on tuesday'
p1380
aS'what dishes are being served tuesday afternoon'
p1381
aS'what is the menu for after breakfast on tuesday'
p1382
aS'what will be on the tuesday afternoon menu'
p1383
aS'what is the menu before dinner on tuesday'
p1384
aS'can you give me the midday menu for tuesday'
p1385
aS'what will be on the menu tuesday afternoon'
p1386
aS'what do we eat on tuesday at noon'
p1387
aS'will we have hamburgers on tuesday'
p1388
aS'can i have the noon menu for tuesday'
p1389
aS'what kind of food will be served tuesday afternoon'
p1390
aS'what can i order to eat tuesday around noon'
p1391
aS"what is tuesday's noon menu"
p1392
aS'what is being served around noon on tuesday'
p1393
aS"what's on tuesday's midday menu"
p1394
aS'what will we be eating tuesday afternoon'
p1395
aS'middle meal on tuesday , please'
p1396
aS'what will the noon meal be tuesday'
p1397
aS'what is being served tuesday at noon'
p1398
aS'what food is being served tuesday at high noon'
p1399
aS'what is on the menu for tuesday afternoon'
p1400
aS'what is the menu for tuesday'
p1401
aS'what are we eating tuesday before dinner'
p1402
aS"is there anything good to eat on tuesday's noon menu"
p1403
aS'what is the menu after breakfast on tuesday'
p1404
aS"can you give me tuesday's midday menu"
p1405
aS'what is available on the menu tuesday afternoon'
p1406
aS"what's after  brunch on the menu on tuesday"
p1407
aS'what do i get to eat on tuesday'
p1408
aS"what's on the menu for noon on tuesday"
p1409
aS'please show me the menu for tuesday afternoon'
p1410
asS'voice_synthesizer speak_text_on_screen'
p1411
(lp1412
sS'lunch tomorrow'
p1413
(lp1414
S'what can i eat before dinner tomorrow'
p1415
aS'can you give me the menu for noon tomorrow'
p1416
aS'what is the menu after breakfast tomorrow'
p1417
aS"can you give me tomorrow's midday menu"
p1418
aS'what is available on the menu tomorrow afternoon'
p1419
aS'are we eating something for noon tomorrow'
p1420
aS'what do i get to eat tomorrow'
p1421
aS"what's on the menu for noon tomorrow"
p1422
aS'what dishes are being served tomorrow afternoon'
p1423
aS"show me tomorrow afternoon's menu"
p1424
aS'what will be on the afternoon menu tomorrow'
p1425
aS'what is being served after breakfast tomorrow'
p1426
aS'what can i have for my midday meal tomorrow'
p1427
aS'what will be on the menu tomorrow afternoon'
p1428
aS'what do we eat for noon tomorrow'
p1429
aS'what will we eat at noon tomorrow'
p1430
aS'what is the mid-day meal tomorrow'
p1431
aS'what food is available for tomorrow'
p1432
aS'what will there be to eat after breakfast tomorrow'
p1433
aS'when we dine tomorrow at noon what will be on the menu'
p1434
aS'what is the menu before dinner tomorrow'
p1435
aS'can you give me the midday menu for tomorrow'
p1436
aS'what can we expect on the menu tomorrow afternoon'
p1437
aS"hey, what's the second meal of the day tomorrow"
p1438
aS'will we have hamburgers tomorrow'
p1439
aS'can i have the noon menu for tomorrow'
p1440
aS"please show me tomorrow's menu"
p1441
aS'what is there to eat tomorrow midday'
p1442
aS'when we go out  to eat at 1pm  what can we eat'
p1443
aS'what is being served around noon tomorrow'
p1444
aS"what's on tomorrow's midday menu"
p1445
aS'what will we be eating tomorrow afternoon'
p1446
aS"what's on the noon menu tomorrow"
p1447
aS'what will the noon meal be tomorrow'
p1448
aS'what is being served tomorrow at noon'
p1449
aS'what can i eat tomorrow afternoon'
p1450
aS'what is on the menu for tomorrow afternoon'
p1451
aS'what are we having for the noontime meal'
p1452
as.