(lp0
S'Lunch'
p1
aS'Monday'
p2
aS'Phone'
p3
aS'Sound'
p4
aS'Wakefulness'
p5
aS'Action_(philosophy)'
p6
aS'Present'
p7
aS'Contact_list'
p8
aS'Wednesday'
p9
aS'Tuesday'
p10
aS'Breakfast'
p11
aS'Shutdown_(computing)'
p12
aS'Phone_call'
p13
aS'Friday'
p14
aS'Future'
p15
aS'Weather'
p16
aS'Saturday'
p17
aS'Calendar_date'
p18
aS'Time'
p19
aS'Dinner'
p20
aS'Thursday'
p21
aS'Booting_up'
p22
aS'Sunday'
p23
aS'Negation_(linguistics)'
p24
aS'Interrupt'
p25
aS'Acceptance'
p26
aS'Hold_(telephone)'
p27
aS'Sleep_mode'
p28
aS'Speech'
p29
aS'Text_(literary_theory)'
p30
a.