(dp0
S'lunch monday'
p1
(lp2
S'Lunch'
p3
aS'Monday'
p4
asS'phone unfullscreen_video'
p5
(lp6
S'Phone'
p7
asS'voice_synthesizer audio_on'
p8
(lp9
S'Sound'
p10
aS'Wakefulness'
p11
asS'activities today'
p12
(lp13
S'Action_(philosophy)'
p14
aS'Present'
p15
asS'phone show_contacts'
p16
(lp17
g7
aS'Contact_list'
p18
asS'lunch wednesday'
p19
(lp20
g3
aS'Wednesday'
p21
asS'activities tuesday'
p22
(lp23
g14
aS'Tuesday'
p24
asS'activities wednesday'
p25
(lp26
g14
ag21
asS'breakfast monday'
p27
(lp28
S'Breakfast'
p29
ag4
asS'voice_synthesizer audio_off'
p30
(lp31
g10
aS'Shutdown_(computing)'
p32
asS'phone make_phone_call'
p33
(lp34
g7
aS'Phone_call'
p35
asS'null yes_record'
p36
(lp37
S''
p38
asS'activities monday'
p39
(lp40
g14
ag4
asS'lunch friday'
p41
(lp42
g3
aS'Friday'
p43
asS'breakfast tomorrow'
p44
(lp45
g29
aS'Future'
p46
asS'weather wednesday'
p47
(lp48
S'Weather'
p49
ag21
asS'weather saturday'
p50
(lp51
g49
aS'Saturday'
p52
asS'time date'
p53
(lp54
S'Calendar_date'
p55
aS'Time'
p56
asS'dinner tomorrow'
p57
(lp58
S'Dinner'
p59
ag46
asS'dinner tuesday'
p60
(lp61
g59
ag24
asS'weather tomorrow'
p62
(lp63
g49
ag46
asS'dinner thursday'
p64
(lp65
g59
aS'Thursday'
p66
asS'lunch today'
p67
(lp68
g3
ag15
asS'weather thursday'
p69
(lp70
g49
ag66
asS'breakfast thursday'
p71
(lp72
g29
ag66
asS'system wake_up'
p73
(lp74
S'Booting_up'
p75
ag11
asS'breakfast friday'
p76
(lp77
g29
ag43
asS'phone fullscreen_video'
p78
(lp79
g7
asS'breakfast wednesday'
p80
(lp81
g29
ag21
asS'weather sunday'
p82
(lp83
g49
aS'Sunday'
p84
asS'dinner friday'
p85
(lp86
g59
ag43
asS'dinner wednesday'
p87
(lp88
g59
ag21
asS'lunch sunday'
p89
(lp90
g3
ag84
asS'dinner today'
p91
(lp92
g59
ag15
asS'confirmatory no'
p93
(lp94
S'Negation_(linguistics)'
p95
asS'weather tuesday'
p96
(lp97
g49
ag24
asS'time time'
p98
(lp99
g56
ag56
asS'weather monday'
p100
(lp101
g49
ag4
asS'dinner sunday'
p102
(lp103
g59
ag84
asS'lunch saturday'
p104
(lp105
g3
ag52
asS'voice_synthesizer interrupt'
p106
(lp107
g10
aS'Interrupt'
p108
asS'breakfast sunday'
p109
(lp110
g29
ag84
asS'activities saturday'
p111
(lp112
g14
ag52
asS'confirmatory yes'
p113
(lp114
S'Acceptance'
p115
asS'activities thursday'
p116
(lp117
g14
ag66
asS'dinner monday'
p118
(lp119
g59
ag4
asS'weather friday'
p120
(lp121
g49
ag43
asS'activities friday'
p122
(lp123
g14
ag43
asS'weather today'
p124
(lp125
g49
ag15
asS'activities tomorrow'
p126
(lp127
g14
ag46
asS'breakfast tuesday'
p128
(lp129
g29
ag24
asS'phone answer_phone'
p130
(lp131
g7
asS'dinner saturday'
p132
(lp133
g59
ag52
asS'phone resume_call'
p134
(lp135
g7
asS'breakfast today'
p136
(lp137
g29
ag15
asS'lunch thursday'
p138
(lp139
g3
ag66
asS'phone hold_call'
p140
(lp141
g7
aS'Hold_(telephone)'
p142
asS'breakfast saturday'
p143
(lp144
g29
ag52
asS'phone hang_up'
p145
(lp146
g7
asS'activities sunday'
p147
(lp148
g14
ag84
asS'system go_to_sleep'
p149
(lp150
S'Sleep_mode'
p151
ag32
asS'lunch tuesday'
p152
(lp153
g3
ag24
asS'voice_synthesizer speak_text_on_screen'
p154
(lp155
S'Speech'
p156
aS'Text_(literary_theory)'
p157
asS'lunch tomorrow'
p158
(lp159
g3
ag46
as.