(lp0
S'can'
p1
aS'you'
p2
aS'ring'
p3
aS'this'
p4
aS'person'
p5
aS'can'
p6
aS'i'
p7
aS'buzz'
p8
aS'someone'
p9
aS'real'
p10
aS'quick'
p11
ag7
aS'need'
p12
aS'to'
p13
aS'phone'
p14
aS'someone'
p15
aS'help'
p16
aS'me'
p17
aS'make'
p18
aS'a'
p19
aS'call'
p20
aS'would'
p21
ag7
aS'be'
p22
aS'able'
p23
aS'to'
p24
aS'make'
p25
ag19
aS'call'
p26
aS"i'd"
p27
aS'like'
p28
aS'to'
p29
aS'talk'
p30
aS'to'
p31
aS'somebody'
p32
ag7
aS'want'
p33
aS'to'
p34
aS'call'
p35
aS'fred'
p36
ag7
aS'need'
p37
aS'to'
p38
aS'call'
p39
aS'on'
p40
aS'someone'
p41
ag7
aS'need'
p42
aS'assistance'
p43
aS'with'
p44
aS'dialing'
p45
ag19
aS'number'
p46
ag7
aS'need'
p47
aS'to'
p48
aS'call'
p49
aS'someone'
p50
aS'can'
p51
ag7
aS'use'
p52
aS'your'
p53
aS'cell'
p54
aS'for'
p55
ag19
aS'second'
p56
aS"i'd"
p57
aS'like'
p58
aS'to'
p59
aS'make'
p60
ag19
aS'call'
p61
aS"i'd"
p62
aS'like'
p63
aS'to'
p64
aS'make'
p65
ag19
aS'call'
p66
aS'can'
p67
ag7
aS'make'
p68
ag19
aS'call'
p69
aS"i'd"
p70
aS'like'
p71
aS'to'
p72
aS'give'
p73
aS'somebody'
p74
ag19
aS'ring'
p75
ag7
aS'want'
p76
aS'to'
p77
aS'dial'
p78
aS'my'
p79
aS'daughter'
p80
aS'could'
p81
ag7
aS'please'
p82
aS'make'
p83
ag19
aS'call'
p84
aS'can'
p85
aS'you'
p86
aS'dial'
p87
aS'steven'
p88
ag7
aS'need'
p89
aS'to'
p90
aS'call'
p91
aS'someone'
p92
ag7
aS'want'
p93
aS'to'
p94
aS'dial'
p95
ag19
aS'number'
p96
ag7
aS'need'
p97
aS'to'
p98
aS'make'
p99
ag19
aS'call'
p100
aS'to'
p101
aS'someone'
p102
aS'can'
p103
aS'you'
p104
aS'dial'
p105
aS'this'
p106
aS'number'
p107
aS'can'
p108
ag7
aS'ring'
p109
aS'someone'
p110
aS'up'
p111
aS'for'
p112
ag19
aS'second'
p113
aS"i'd"
p114
aS'like'
p115
aS'to'
p116
aS'dial'
p117
aS"i'd"
p118
aS'like'
p119
aS'to'
p120
aS'ring'
p121
aS'my'
p122
aS'sister'
p123
aS'may'
p124
ag7
aS'make'
p125
ag19
aS'call'
p126
aS"i'd"
p127
aS'like'
p128
aS'to'
p129
aS'call'
p130
aS'somebody'
p131
ag7
aS'want'
p132
aS'to'
p133
aS'give'
p134
aS'my'
p135
aS'daughter'
p136
ag19
aS'ring'
p137
ag7
aS'need'
p138
aS'to'
p139
aS'call'
p140
aS'someone'
p141
ag7
aS'need'
p142
aS'to'
p143
aS'make'
p144
ag19
aS'call'
p145
ag7
aS'want'
p146
aS'to'
p147
aS'call'
p148
ag19
aS'contact'
p149
aS'can'
p150
aS'you'
p151
aS'call'
p152
aS'someone'
p153
a.