(lp0
S'thank'
p1
aS'you,'
p2
aS"i'm"
p3
aS'finished'
p4
aS'see'
p5
aS'you'
p6
aS'later'
p7
aS'the'
p8
aS'phone'
p9
aS'call'
p10
aS'is'
p11
aS'over'
p12
aS'disconnect'
p13
aS'me'
p14
aS'will'
p15
aS'you'
p16
aS'terminate'
p17
aS'this'
p18
aS'call'
p19
aS'please'
p20
aS'ok'
p21
aS"that's"
p22
aS'enough'
p23
aS'buh-bye'
p24
aS'disconnect'
p25
aS'could'
p26
aS'i'
p27
aS'please'
p28
aS'disconnect'
p29
aS"i'm"
p30
aS'ending'
p31
aS'the'
p32
aS'call'
p33
aS'now'
p34
aS'disconnect'
p35
aS'the'
p36
aS'call'
p37
aS'end'
p38
aS'the'
p39
aS'call'
p40
aS'well,'
p41
ag27
aS'need'
p42
aS'to'
p43
aS'get'
p44
aS'back'
p45
aS'to'
p46
aS'work'
p47
aS'end'
p48
aS'the'
p49
aS'phone'
p50
aS'call'
p51
aS'cut'
p52
aS'the'
p53
aS'line'
p54
ag27
aS'am'
p55
aS'finished'
p56
aS'can'
p57
aS'you'
p58
aS'end'
p59
aS'the'
p60
aS'call'
p61
aS'please'
p62
ag27
aS'have'
p63
aS'to'
p64
aS'go'
p65
aS'byyye'
p66
aS'the'
p67
aS'end'
p68
ag27
aS'want'
p69
aS'to'
p70
aS'disconnect'
p71
aS'the'
p72
aS'phone'
p73
aS"i'm"
p74
aS'disconnecting'
p75
aS'now'
p76
aS'end'
p77
aS'the'
p78
aS'call'
p79
aS'goodbye'
p80
aS'is'
p81
aS'it'
p82
aS'allright'
p83
aS'if'
p84
ag27
aS'go'
p85
ag27
aS'am'
p86
aS'done'
p87
aS'talking'
p88
aS'on'
p89
aS'the'
p90
aS'phone'
p91
aS'disconnect'
p92
aS'can'
p93
aS'you'
p94
aS'please'
p95
aS'end'
p96
aS'this'
p97
aS'call'
p98
aS"i'd"
p99
aS'like'
p100
aS'to'
p101
aS'go'
p102
aS'now'
p103
aS'thanks'
p104
aS'goodbye'
p105
ag27
aS'need'
p106
aS'to'
p107
aS'end'
p108
aS'the'
p109
aS'call'
p110
ag27
aS'am'
p111
aS'getting'
p112
aS'off'
p113
aS'the'
p114
aS'phone'
p115
aS'now'
p116
ag27
aS'would'
p117
aS'like'
p118
aS'to'
p119
aS'end'
p120
aS'the'
p121
aS'call'
p122
aS"i'm"
p123
aS'done'
p124
aS'can'
p125
ag27
aS'sign'
p126
aS'off'
p127
aS'now'
p128
aS'conversation'
p129
aS'over'
p130
aS'can'
p131
aS'you'
p132
aS'ring'
p133
aS'this'
p134
aS'person'
p135
aS'can'
p136
ag27
aS'buzz'
p137
aS'someone'
p138
aS'real'
p139
aS'quick'
p140
ag27
aS'need'
p141
aS'to'
p142
aS'phone'
p143
aS'someone'
p144
aS'help'
p145
aS'me'
p146
aS'make'
p147
aS'a'
p148
aS'call'
p149
aS'would'
p150
ag27
aS'be'
p151
aS'able'
p152
aS'to'
p153
aS'make'
p154
ag148
aS'call'
p155
aS"i'd"
p156
aS'like'
p157
aS'to'
p158
aS'talk'
p159
aS'to'
p160
aS'somebody'
p161
ag27
aS'want'
p162
aS'to'
p163
aS'call'
p164
aS'fred'
p165
ag27
aS'need'
p166
aS'to'
p167
aS'call'
p168
aS'on'
p169
aS'someone'
p170
ag27
aS'need'
p171
aS'assistance'
p172
aS'with'
p173
aS'dialing'
p174
ag148
aS'number'
p175
ag27
aS'need'
p176
aS'to'
p177
aS'call'
p178
aS'someone'
p179
aS'can'
p180
ag27
aS'use'
p181
aS'your'
p182
aS'cell'
p183
aS'for'
p184
ag148
aS'second'
p185
aS"i'd"
p186
aS'like'
p187
aS'to'
p188
aS'make'
p189
ag148
aS'call'
p190
aS"i'd"
p191
aS'like'
p192
aS'to'
p193
aS'make'
p194
ag148
aS'call'
p195
aS'can'
p196
ag27
aS'make'
p197
ag148
aS'call'
p198
aS"i'd"
p199
aS'like'
p200
aS'to'
p201
aS'give'
p202
aS'somebody'
p203
ag148
aS'ring'
p204
ag27
aS'want'
p205
aS'to'
p206
aS'dial'
p207
aS'my'
p208
aS'daughter'
p209
aS'could'
p210
ag27
aS'please'
p211
aS'make'
p212
ag148
aS'call'
p213
aS'can'
p214
aS'you'
p215
aS'dial'
p216
aS'steven'
p217
ag27
aS'need'
p218
aS'to'
p219
aS'call'
p220
aS'someone'
p221
ag27
aS'want'
p222
aS'to'
p223
aS'dial'
p224
ag148
aS'number'
p225
ag27
aS'need'
p226
aS'to'
p227
aS'make'
p228
ag148
aS'call'
p229
aS'to'
p230
aS'someone'
p231
aS'can'
p232
aS'you'
p233
aS'dial'
p234
aS'this'
p235
aS'number'
p236
aS'can'
p237
ag27
aS'ring'
p238
aS'someone'
p239
aS'up'
p240
aS'for'
p241
ag148
aS'second'
p242
aS"i'd"
p243
aS'like'
p244
aS'to'
p245
aS'dial'
p246
aS"i'd"
p247
aS'like'
p248
aS'to'
p249
aS'ring'
p250
aS'my'
p251
aS'sister'
p252
aS'may'
p253
ag27
aS'make'
p254
ag148
aS'call'
p255
aS"i'd"
p256
aS'like'
p257
aS'to'
p258
aS'call'
p259
aS'somebody'
p260
ag27
aS'want'
p261
aS'to'
p262
aS'give'
p263
aS'my'
p264
aS'daughter'
p265
ag148
aS'ring'
p266
ag27
aS'need'
p267
aS'to'
p268
aS'call'
p269
aS'someone'
p270
ag27
aS'need'
p271
aS'to'
p272
aS'make'
p273
ag148
aS'call'
p274
ag27
aS'want'
p275
aS'to'
p276
aS'call'
p277
ag148
aS'contact'
p278
aS'can'
p279
aS'you'
p280
aS'call'
p281
aS'someone'
p282
a.